target datalayout = "e-m:e-p270:32:32-p271:32:32-p272:64:64-i64:64-i128:128-f80:128-n8:16:32:64-S128"
target triple = "x86_64-pc-linux-gnu"

%struct.SurfaceDataRasInfo = type { %struct.SurfaceDataBounds, ptr, i32, i32, i32, i32, ptr, ptr, ptr, ptr, ptr, ptr, i32, %union.anon.0 }
%struct.SurfaceDataBounds = type { i32, i32, i32, i32 }
%union.anon.0 = type { ptr, [56 x i8] }
%struct._CompositeInfo = type { i32, %union.anon.1, i32 }
%union.anon.1 = type { float }

; Function Attrs: nounwind uwtable
define hidden void @IntArgbToByteIndexedXorBlit(ptr noundef %0, ptr noundef %1, i32 noundef %2, i32 noundef %3, ptr noundef %4, ptr noundef %5, ptr noundef %6, ptr noundef %7) #0 {
  %9 = alloca ptr, align 8
  %10 = alloca ptr, align 8
  %11 = alloca i32, align 4
  %12 = alloca i32, align 4
  %13 = alloca ptr, align 8
  %14 = alloca ptr, align 8
  %15 = alloca ptr, align 8
  %16 = alloca ptr, align 8
  %17 = alloca i32, align 4
  %18 = alloca i32, align 4
  %19 = alloca i32, align 4
  %20 = alloca i32, align 4
  %21 = alloca i32, align 4
  %22 = alloca ptr, align 8
  %23 = alloca ptr, align 8
  %24 = alloca ptr, align 8
  %25 = alloca ptr, align 8
  %26 = alloca ptr, align 8
  %27 = alloca ptr, align 8
  %28 = alloca i32, align 4
  %29 = alloca i32, align 4
  %30 = alloca i32, align 4
  %31 = alloca i32, align 4
  %32 = alloca i32, align 4
  %33 = alloca i32, align 4
  %34 = alloca i32, align 4
  store ptr %0, ptr %9, align 8
  store ptr %1, ptr %10, align 8
  store i32 %2, ptr %11, align 4
  store i32 %3, ptr %12, align 4
  store ptr %4, ptr %13, align 8
  store ptr %5, ptr %14, align 8
  store ptr %6, ptr %15, align 8
  store ptr %7, ptr %16, align 8
  %35 = load ptr, ptr %16, align 8
  %36 = getelementptr inbounds %struct._CompositeInfo, ptr %35, i32 0, i32 1
  %37 = load i32, ptr %36, align 4
  store i32 %37, ptr %17, align 4
  %38 = load ptr, ptr %16, align 8
  %39 = getelementptr inbounds %struct._CompositeInfo, ptr %38, i32 0, i32 2
  %40 = load i32, ptr %39, align 4
  store i32 %40, ptr %18, align 4
  br label %41

41:                                               ; preds = %8
  %42 = load ptr, ptr %9, align 8
  store ptr %42, ptr %26, align 8
  %43 = load ptr, ptr %10, align 8
  store ptr %43, ptr %27, align 8
  %44 = load ptr, ptr %13, align 8
  %45 = getelementptr inbounds %struct.SurfaceDataRasInfo, ptr %44, i32 0, i32 4
  %46 = load i32, ptr %45, align 8
  store i32 %46, ptr %28, align 4
  %47 = load ptr, ptr %14, align 8
  %48 = getelementptr inbounds %struct.SurfaceDataRasInfo, ptr %47, i32 0, i32 4
  %49 = load i32, ptr %48, align 8
  store i32 %49, ptr %29, align 4
  br label %50

50:                                               ; preds = %41
  br label %51

51:                                               ; preds = %50
  %52 = load ptr, ptr %14, align 8
  %53 = getelementptr inbounds %struct.SurfaceDataRasInfo, ptr %52, i32 0, i32 0
  %54 = getelementptr inbounds %struct.SurfaceDataBounds, ptr %53, i32 0, i32 1
  %55 = load i32, ptr %54, align 4
  %56 = and i32 %55, 7
  %57 = shl i32 %56, 3
  store i32 %57, ptr %20, align 4
  br label %58

58:                                               ; preds = %51
  %59 = load ptr, ptr %14, align 8
  %60 = getelementptr inbounds %struct.SurfaceDataRasInfo, ptr %59, i32 0, i32 7
  %61 = load ptr, ptr %60, align 8
  store ptr %61, ptr %25, align 8
  %62 = load ptr, ptr %14, align 8
  %63 = getelementptr inbounds %struct.SurfaceDataRasInfo, ptr %62, i32 0, i32 12
  %64 = load i32, ptr %63, align 8
  store i32 %64, ptr %21, align 4
  br label %65

65:                                               ; preds = %58
  %66 = load i32, ptr %11, align 4
  %67 = mul i32 %66, 4
  %68 = load i32, ptr %28, align 4
  %69 = sub i32 %68, %67
  store i32 %69, ptr %28, align 4
  %70 = load i32, ptr %11, align 4
  %71 = mul i32 %70, 1
  %72 = load i32, ptr %29, align 4
  %73 = sub i32 %72, %71
  store i32 %73, ptr %29, align 4
  br label %74

74:                                               ; preds = %189, %65
  %75 = load i32, ptr %11, align 4
  store i32 %75, ptr %30, align 4
  br label %76

76:                                               ; preds = %74
  %77 = load ptr, ptr %14, align 8
  %78 = getelementptr inbounds %struct.SurfaceDataRasInfo, ptr %77, i32 0, i32 8
  %79 = load ptr, ptr %78, align 8
  %80 = load i32, ptr %20, align 4
  %81 = sext i32 %80 to i64
  %82 = getelementptr inbounds i8, ptr %79, i64 %81
  store ptr %82, ptr %22, align 8
  %83 = load ptr, ptr %14, align 8
  %84 = getelementptr inbounds %struct.SurfaceDataRasInfo, ptr %83, i32 0, i32 9
  %85 = load ptr, ptr %84, align 8
  %86 = load i32, ptr %20, align 4
  %87 = sext i32 %86 to i64
  %88 = getelementptr inbounds i8, ptr %85, i64 %87
  store ptr %88, ptr %23, align 8
  %89 = load ptr, ptr %14, align 8
  %90 = getelementptr inbounds %struct.SurfaceDataRasInfo, ptr %89, i32 0, i32 10
  %91 = load ptr, ptr %90, align 8
  %92 = load i32, ptr %20, align 4
  %93 = sext i32 %92 to i64
  %94 = getelementptr inbounds i8, ptr %91, i64 %93
  store ptr %94, ptr %24, align 8
  %95 = load ptr, ptr %14, align 8
  %96 = getelementptr inbounds %struct.SurfaceDataRasInfo, ptr %95, i32 0, i32 0
  %97 = getelementptr inbounds %struct.SurfaceDataBounds, ptr %96, i32 0, i32 0
  %98 = load i32, ptr %97, align 8
  %99 = and i32 %98, 7
  store i32 %99, ptr %19, align 4
  br label %100

100:                                              ; preds = %76
  br label %101

101:                                              ; preds = %169, %100
  br label %102

102:                                              ; preds = %101
  %103 = load ptr, ptr %26, align 8
  %104 = getelementptr inbounds i32, ptr %103, i64 0
  %105 = load i32, ptr %104, align 4
  store i32 %105, ptr %31, align 4
  %106 = load i32, ptr %31, align 4
  %107 = icmp sge i32 %106, 0
  br i1 %107, label %108, label %109

108:                                              ; preds = %102
  br label %157

109:                                              ; preds = %102
  br label %110

110:                                              ; preds = %109
  br label %111

111:                                              ; preds = %110
  %112 = load i32, ptr %31, align 4
  %113 = and i32 %112, 255
  store i32 %113, ptr %34, align 4
  %114 = load i32, ptr %31, align 4
  %115 = ashr i32 %114, 8
  %116 = and i32 %115, 255
  store i32 %116, ptr %33, align 4
  %117 = load i32, ptr %31, align 4
  %118 = ashr i32 %117, 16
  %119 = and i32 %118, 255
  store i32 %119, ptr %32, align 4
  br label %120

120:                                              ; preds = %111
  %121 = load ptr, ptr %14, align 8
  %122 = getelementptr inbounds %struct.SurfaceDataRasInfo, ptr %121, i32 0, i32 7
  %123 = load ptr, ptr %122, align 8
  %124 = load i32, ptr %32, align 4
  %125 = trunc i32 %124 to i8
  %126 = zext i8 %125 to i32
  %127 = ashr i32 %126, 3
  %128 = shl i32 %127, 10
  %129 = load i32, ptr %33, align 4
  %130 = trunc i32 %129 to i8
  %131 = zext i8 %130 to i32
  %132 = ashr i32 %131, 3
  %133 = shl i32 %132, 5
  %134 = add nsw i32 %128, %133
  %135 = load i32, ptr %34, align 4
  %136 = trunc i32 %135 to i8
  %137 = zext i8 %136 to i32
  %138 = ashr i32 %137, 3
  %139 = add nsw i32 %134, %138
  %140 = sext i32 %139 to i64
  %141 = getelementptr inbounds i8, ptr %123, i64 %140
  %142 = load i8, ptr %141, align 1
  %143 = zext i8 %142 to i32
  store i32 %143, ptr %31, align 4
  br label %144

144:                                              ; preds = %120
  %145 = load i32, ptr %31, align 4
  %146 = load i32, ptr %17, align 4
  %147 = xor i32 %145, %146
  %148 = load i32, ptr %18, align 4
  %149 = xor i32 %148, -1
  %150 = and i32 %147, %149
  %151 = load ptr, ptr %27, align 8
  %152 = getelementptr inbounds i8, ptr %151, i64 0
  %153 = load i8, ptr %152, align 1
  %154 = zext i8 %153 to i32
  %155 = xor i32 %154, %150
  %156 = trunc i32 %155 to i8
  store i8 %156, ptr %152, align 1
  br label %157

157:                                              ; preds = %144, %108
  %158 = load ptr, ptr %26, align 8
  %159 = ptrtoint ptr %158 to i64
  %160 = add nsw i64 %159, 4
  %161 = inttoptr i64 %160 to ptr
  store ptr %161, ptr %26, align 8
  %162 = load ptr, ptr %27, align 8
  %163 = ptrtoint ptr %162 to i64
  %164 = add nsw i64 %163, 1
  %165 = inttoptr i64 %164 to ptr
  store ptr %165, ptr %27, align 8
  %166 = load i32, ptr %19, align 4
  %167 = add nsw i32 %166, 1
  %168 = and i32 %167, 7
  store i32 %168, ptr %19, align 4
  br label %169

169:                                              ; preds = %157
  %170 = load i32, ptr %30, align 4
  %171 = add i32 %170, -1
  store i32 %171, ptr %30, align 4
  %172 = icmp ugt i32 %171, 0
  br i1 %172, label %101, label %173, !llvm.loop !42

173:                                              ; preds = %169
  %174 = load ptr, ptr %26, align 8
  %175 = ptrtoint ptr %174 to i64
  %176 = load i32, ptr %28, align 4
  %177 = sext i32 %176 to i64
  %178 = add nsw i64 %175, %177
  %179 = inttoptr i64 %178 to ptr
  store ptr %179, ptr %26, align 8
  %180 = load ptr, ptr %27, align 8
  %181 = ptrtoint ptr %180 to i64
  %182 = load i32, ptr %29, align 4
  %183 = sext i32 %182 to i64
  %184 = add nsw i64 %181, %183
  %185 = inttoptr i64 %184 to ptr
  store ptr %185, ptr %27, align 8
  %186 = load i32, ptr %20, align 4
  %187 = add nsw i32 %186, 8
  %188 = and i32 %187, 56
  store i32 %188, ptr %20, align 4
  br label %189

189:                                              ; preds = %173
  %190 = load i32, ptr %12, align 4
  %191 = add i32 %190, -1
  store i32 %191, ptr %12, align 4
  %192 = icmp ugt i32 %191, 0
  br i1 %192, label %74, label %193, !llvm.loop !43

193:                                              ; preds = %189
  br label %194

194:                                              ; preds = %193
  ret void
}