; Function Attrs: nofree norecurse nosync nounwind memory(readwrite, inaccessiblemem: none) uwtable
define hidden void @IntArgbToByteIndexedXorBlit(ptr noundef %0, ptr noundef %1, i32 noundef %2, i32 noundef %3, ptr nocapture noundef readonly %4, ptr nocapture noundef readonly %5, ptr nocapture readnone %6, ptr nocapture noundef readonly %7) #0 {
  %9 = getelementptr inbounds i8, ptr %7, i64 4
  %10 = load i32, ptr %9, align 4
  %11 = getelementptr inbounds i8, ptr %7, i64 8
  %12 = load i32, ptr %11, align 4
  %13 = getelementptr inbounds i8, ptr %4, i64 32
  %14 = load i32, ptr %13, align 8
  %15 = getelementptr inbounds i8, ptr %5, i64 32
  %16 = load i32, ptr %15, align 8
  %17 = getelementptr inbounds i8, ptr %5, i64 48
  %18 = shl i32 %2, 2
  %19 = sub i32 %14, %18
  %20 = sub i32 %16, %2
  %21 = sext i32 %19 to i64
  %22 = xor i32 %12, -1
  %23 = sext i32 %20 to i64
  br label %24

24:                                               ; preds = %55, %8
  %.047 = phi ptr [ %0, %8 ], [ %57, %55 ]
  %.046 = phi ptr [ %1, %8 ], [ %59, %55 ]
  %.0 = phi i32 [ %3, %8 ], [ %60, %55 ]
  br label %25

25:                                               ; preds = %47, %24
  %.148 = phi ptr [ %.047, %24 ], [ %50, %47 ]
  %.1 = phi ptr [ %.046, %24 ], [ %53, %47 ]
  %.045 = phi i32 [ %2, %24 ], [ %54, %47 ]
  %26 = load i32, ptr %.148, align 4
  %27 = icmp sgt i32 %26, -1
  br i1 %27, label %47, label %28

28:                                               ; preds = %25
  %29 = load ptr, ptr %17, align 8
  %30 = lshr i32 %26, 9
  %31 = and i32 %30, 31744
  %32 = lshr i32 %26, 6
  %33 = and i32 %32, 992
  %34 = or disjoint i32 %31, %33
  %35 = lshr i32 %26, 3
  %36 = and i32 %35, 31
  %37 = or disjoint i32 %34, %36
  %38 = zext nneg i32 %37 to i64
  %39 = getelementptr inbounds i8, ptr %29, i64 %38
  %40 = load i8, ptr %39, align 1
  %41 = zext i8 %40 to i32
  %42 = xor i32 %10, %41
  %43 = and i32 %42, %22
  %44 = load i8, ptr %.1, align 1
  %45 = trunc i32 %43 to i8
  %46 = xor i8 %44, %45
  store i8 %46, ptr %.1, align 1
  br label %47

47:                                               ; preds = %25, %28
  %48 = ptrtoint ptr %.148 to i64
  %49 = add nsw i64 %48, 4
  %50 = inttoptr i64 %49 to ptr
  %51 = ptrtoint ptr %.1 to i64
  %52 = add nsw i64 %51, 1
  %53 = inttoptr i64 %52 to ptr
  %54 = add i32 %.045, -1
  %.not = icmp eq i32 %54, 0
  br i1 %.not, label %55, label %25, !llvm.loop !43

55:                                               ; preds = %47
  %56 = add nsw i64 %49, %21
  %57 = inttoptr i64 %56 to ptr
  %58 = add nsw i64 %52, %23
  %59 = inttoptr i64 %58 to ptr
  %60 = add i32 %.0, -1
  %.not52 = icmp eq i32 %60, 0
  br i1 %.not52, label %61, label %24, !llvm.loop !44

61:                                               ; preds = %55
  ret void
}